target datalayout = "e-m:e-p270:32:32-p271:32:32-p272:64:64-i64:64-i128:128-f80:128-n8:16:32:64-S128"
target triple = "x86_64-unknown-linux-gnu"

%class.b3Vector3 = type { %union.anon.33 }
%union.anon.33 = type { [4 x float] }
%struct.b3Contact4Data = type { [4 x %class.b3Vector3], %class.b3Vector3, i16, i16, i32, i32, i32, i32, i32, i32, i32 }

; Function Attrs: mustprogress nounwind uwtable
define internal noundef zeroext i1 @_ZL12b3ContactCmpRK10b3Contact4S1_(ptr noundef nonnull align 16 dereferenceable(112) %p, ptr noundef nonnull align 16 dereferenceable(112) %q) #4 {
entry:
  %p.addr = alloca ptr, align 8
  %q.addr = alloca ptr, align 8
  store ptr %p, ptr %p.addr, align 8
  store ptr %q, ptr %q.addr, align 8
  %0 = load ptr, ptr %p.addr, align 8
  %m_bodyAPtrAndSignBit = getelementptr inbounds %struct.b3Contact4Data, ptr %0, i32 0, i32 5
  %1 = load i32, ptr %m_bodyAPtrAndSignBit, align 8
  %2 = load ptr, ptr %q.addr, align 8
  %m_bodyAPtrAndSignBit1 = getelementptr inbounds %struct.b3Contact4Data, ptr %2, i32 0, i32 5
  %3 = load i32, ptr %m_bodyAPtrAndSignBit1, align 8
  %cmp = icmp slt i32 %1, %3
  br i1 %cmp, label %lor.end, label %lor.lhs.false

lor.lhs.false:                                    ; preds = %entry
  %4 = load ptr, ptr %p.addr, align 8
  %m_bodyAPtrAndSignBit2 = getelementptr inbounds %struct.b3Contact4Data, ptr %4, i32 0, i32 5
  %5 = load i32, ptr %m_bodyAPtrAndSignBit2, align 8
  %6 = load ptr, ptr %q.addr, align 8
  %m_bodyAPtrAndSignBit3 = getelementptr inbounds %struct.b3Contact4Data, ptr %6, i32 0, i32 5
  %7 = load i32, ptr %m_bodyAPtrAndSignBit3, align 8
  %cmp4 = icmp eq i32 %5, %7
  br i1 %cmp4, label %land.lhs.true, label %lor.lhs.false7

land.lhs.true:                                    ; preds = %lor.lhs.false
  %8 = load ptr, ptr %p.addr, align 8
  %m_bodyBPtrAndSignBit = getelementptr inbounds %struct.b3Contact4Data, ptr %8, i32 0, i32 6
  %9 = load i32, ptr %m_bodyBPtrAndSignBit, align 4
  %10 = load ptr, ptr %q.addr, align 8
  %m_bodyBPtrAndSignBit5 = getelementptr inbounds %struct.b3Contact4Data, ptr %10, i32 0, i32 6
  %11 = load i32, ptr %m_bodyBPtrAndSignBit5, align 4
  %cmp6 = icmp slt i32 %9, %11
  br i1 %cmp6, label %lor.end, label %lor.lhs.false7

lor.lhs.false7:                                   ; preds = %land.lhs.true, %lor.lhs.false
  %12 = load ptr, ptr %p.addr, align 8
  %m_bodyAPtrAndSignBit8 = getelementptr inbounds %struct.b3Contact4Data, ptr %12, i32 0, i32 5
  %13 = load i32, ptr %m_bodyAPtrAndSignBit8, align 8
  %14 = load ptr, ptr %q.addr, align 8
  %m_bodyAPtrAndSignBit9 = getelementptr inbounds %struct.b3Contact4Data, ptr %14, i32 0, i32 5
  %15 = load i32, ptr %m_bodyAPtrAndSignBit9, align 8
  %cmp10 = icmp eq i32 %13, %15
  br i1 %cmp10, label %land.lhs.true11, label %lor.lhs.false18

land.lhs.true11:                                  ; preds = %lor.lhs.false7
  %16 = load ptr, ptr %p.addr, align 8
  %m_bodyBPtrAndSignBit12 = getelementptr inbounds %struct.b3Contact4Data, ptr %16, i32 0, i32 6
  %17 = load i32, ptr %m_bodyBPtrAndSignBit12, align 4
  %18 = load ptr, ptr %q.addr, align 8
  %m_bodyBPtrAndSignBit13 = getelementptr inbounds %struct.b3Contact4Data, ptr %18, i32 0, i32 6
  %19 = load i32, ptr %m_bodyBPtrAndSignBit13, align 4
  %cmp14 = icmp eq i32 %17, %19
  br i1 %cmp14, label %land.lhs.true15, label %lor.lhs.false18

land.lhs.true15:                                  ; preds = %land.lhs.true11
  %20 = load ptr, ptr %p.addr, align 8
  %m_childIndexA = getelementptr inbounds %struct.b3Contact4Data, ptr %20, i32 0, i32 7
  %21 = load i32, ptr %m_childIndexA, align 16
  %22 = load ptr, ptr %q.addr, align 8
  %m_childIndexA16 = getelementptr inbounds %struct.b3Contact4Data, ptr %22, i32 0, i32 7
  %23 = load i32, ptr %m_childIndexA16, align 16
  %cmp17 = icmp slt i32 %21, %23
  br i1 %cmp17, label %lor.end, label %lor.lhs.false18

lor.lhs.false18:                                  ; preds = %land.lhs.true15, %land.lhs.true11, %lor.lhs.false7
  %24 = load ptr, ptr %p.addr, align 8
  %m_bodyAPtrAndSignBit19 = getelementptr inbounds %struct.b3Contact4Data, ptr %24, i32 0, i32 5
  %25 = load i32, ptr %m_bodyAPtrAndSignBit19, align 8
  %26 = load ptr, ptr %q.addr, align 8
  %m_bodyAPtrAndSignBit20 = getelementptr inbounds %struct.b3Contact4Data, ptr %26, i32 0, i32 5
  %27 = load i32, ptr %m_bodyAPtrAndSignBit20, align 8
  %cmp21 = icmp eq i32 %25, %27
  br i1 %cmp21, label %land.lhs.true22, label %lor.rhs

land.lhs.true22:                                  ; preds = %lor.lhs.false18
  %28 = load ptr, ptr %p.addr, align 8
  %m_bodyBPtrAndSignBit23 = getelementptr inbounds %struct.b3Contact4Data, ptr %28, i32 0, i32 6
  %29 = load i32, ptr %m_bodyBPtrAndSignBit23, align 4
  %30 = load ptr, ptr %q.addr, align 8
  %m_bodyBPtrAndSignBit24 = getelementptr inbounds %struct.b3Contact4Data, ptr %30, i32 0, i32 6
  %31 = load i32, ptr %m_bodyBPtrAndSignBit24, align 4
  %cmp25 = icmp eq i32 %29, %31
  br i1 %cmp25, label %land.lhs.true26, label %lor.rhs

land.lhs.true26:                                  ; preds = %land.lhs.true22
  %32 = load ptr, ptr %p.addr, align 8
  %m_childIndexA27 = getelementptr inbounds %struct.b3Contact4Data, ptr %32, i32 0, i32 7
  %33 = load i32, ptr %m_childIndexA27, align 16
  %34 = load ptr, ptr %q.addr, align 8
  %m_childIndexA28 = getelementptr inbounds %struct.b3Contact4Data, ptr %34, i32 0, i32 7
  %35 = load i32, ptr %m_childIndexA28, align 16
  %cmp29 = icmp slt i32 %33, %35
  br i1 %cmp29, label %lor.end, label %lor.rhs

lor.rhs:                                          ; preds = %land.lhs.true26, %land.lhs.true22, %lor.lhs.false18
  %36 = load ptr, ptr %p.addr, align 8
  %m_bodyAPtrAndSignBit30 = getelementptr inbounds %struct.b3Contact4Data, ptr %36, i32 0, i32 5
  %37 = load i32, ptr %m_bodyAPtrAndSignBit30, align 8
  %38 = load ptr, ptr %q.addr, align 8
  %m_bodyAPtrAndSignBit31 = getelementptr inbounds %struct.b3Contact4Data, ptr %38, i32 0, i32 5
  %39 = load i32, ptr %m_bodyAPtrAndSignBit31, align 8
  %cmp32 = icmp eq i32 %37, %39
  br i1 %cmp32, label %land.lhs.true33, label %land.end

land.lhs.true33:                                  ; preds = %lor.rhs
  %40 = load ptr, ptr %p.addr, align 8
  %m_bodyBPtrAndSignBit34 = getelementptr inbounds %struct.b3Contact4Data, ptr %40, i32 0, i32 6
  %41 = load i32, ptr %m_bodyBPtrAndSignBit34, align 4
  %42 = load ptr, ptr %q.addr, align 8
  %m_bodyBPtrAndSignBit35 = getelementptr inbounds %struct.b3Contact4Data, ptr %42, i32 0, i32 6
  %43 = load i32, ptr %m_bodyBPtrAndSignBit35, align 4
  %cmp36 = icmp eq i32 %41, %43
  br i1 %cmp36, label %land.lhs.true37, label %land.end

land.lhs.true37:                                  ; preds = %land.lhs.true33
  %44 = load ptr, ptr %p.addr, align 8
  %m_childIndexA38 = getelementptr inbounds %struct.b3Contact4Data, ptr %44, i32 0, i32 7
  %45 = load i32, ptr %m_childIndexA38, align 16
  %46 = load ptr, ptr %q.addr, align 8
  %m_childIndexA39 = getelementptr inbounds %struct.b3Contact4Data, ptr %46, i32 0, i32 7
  %47 = load i32, ptr %m_childIndexA39, align 16
  %cmp40 = icmp eq i32 %45, %47
  br i1 %cmp40, label %land.rhs, label %land.end

land.rhs:                                         ; preds = %land.lhs.true37
  %48 = load ptr, ptr %p.addr, align 8
  %m_childIndexB = getelementptr inbounds %struct.b3Contact4Data, ptr %48, i32 0, i32 8
  %49 = load i32, ptr %m_childIndexB, align 4
  %50 = load ptr, ptr %q.addr, align 8
  %m_childIndexB41 = getelementptr inbounds %struct.b3Contact4Data, ptr %50, i32 0, i32 8
  %51 = load i32, ptr %m_childIndexB41, align 4
  %cmp42 = icmp slt i32 %49, %51
  br label %land.end

land.end:                                         ; preds = %land.rhs, %land.lhs.true37, %land.lhs.true33, %lor.rhs
  %52 = phi i1 [ false, %land.lhs.true37 ], [ false, %land.lhs.true33 ], [ false, %lor.rhs ], [ %cmp42, %land.rhs ]
  br label %lor.end

lor.end:                                          ; preds = %land.end, %land.lhs.true26, %land.lhs.true15, %land.lhs.true, %entry
  %53 = phi i1 [ true, %land.lhs.true26 ], [ true, %land.lhs.true15 ], [ true, %land.lhs.true ], [ true, %entry ], [ %52, %land.end ]
  ret i1 %53
}