; Function Attrs: mustprogress nofree norecurse nosync nounwind willreturn memory(argmem: read) uwtable
define internal noundef zeroext i1 @_ZL12b3ContactCmpRK10b3Contact4S1_(ptr nocapture noundef nonnull readonly align 16 dereferenceable(112) %p, ptr nocapture noundef nonnull readonly align 16 dereferenceable(112) %q) #10 {
entry:
  %m_bodyAPtrAndSignBit = getelementptr inbounds i8, ptr %p, i64 88
  %0 = load i32, ptr %m_bodyAPtrAndSignBit, align 8
  %m_bodyAPtrAndSignBit1 = getelementptr inbounds i8, ptr %q, i64 88
  %1 = load i32, ptr %m_bodyAPtrAndSignBit1, align 8
  %cmp = icmp slt i32 %0, %1
  br i1 %cmp, label %lor.end, label %lor.lhs.false

lor.lhs.false:                                    ; preds = %entry
  %cmp4 = icmp eq i32 %0, %1
  br i1 %cmp4, label %land.lhs.true, label %lor.end

land.lhs.true:                                    ; preds = %lor.lhs.false
  %m_bodyBPtrAndSignBit = getelementptr inbounds i8, ptr %p, i64 92
  %2 = load i32, ptr %m_bodyBPtrAndSignBit, align 4
  %m_bodyBPtrAndSignBit5 = getelementptr inbounds i8, ptr %q, i64 92
  %3 = load i32, ptr %m_bodyBPtrAndSignBit5, align 4
  %cmp6 = icmp slt i32 %2, %3
  br i1 %cmp6, label %lor.end, label %land.lhs.true11

land.lhs.true11:                                  ; preds = %land.lhs.true
  %cmp14 = icmp eq i32 %2, %3
  br i1 %cmp14, label %land.lhs.true15, label %lor.end

land.lhs.true15:                                  ; preds = %land.lhs.true11
  %m_childIndexA = getelementptr inbounds i8, ptr %p, i64 96
  %4 = load i32, ptr %m_childIndexA, align 16
  %m_childIndexA16 = getelementptr inbounds i8, ptr %q, i64 96
  %5 = load i32, ptr %m_childIndexA16, align 16
  %cmp17 = icmp slt i32 %4, %5
  br i1 %cmp17, label %lor.end, label %land.lhs.true26

land.lhs.true26:                                  ; preds = %land.lhs.true15
  %m_childIndexA27 = getelementptr inbounds i8, ptr %p, i64 96
  %6 = load i32, ptr %m_childIndexA27, align 16
  %m_childIndexA28 = getelementptr inbounds i8, ptr %q, i64 96
  %7 = load i32, ptr %m_childIndexA28, align 16
  %cmp29 = icmp slt i32 %6, %7
  br i1 %cmp29, label %lor.end, label %land.lhs.true37

land.lhs.true37:                                  ; preds = %land.lhs.true26
  %m_childIndexA38 = getelementptr inbounds i8, ptr %p, i64 96
  %8 = load i32, ptr %m_childIndexA38, align 16
  %m_childIndexA39 = getelementptr inbounds i8, ptr %q, i64 96
  %9 = load i32, ptr %m_childIndexA39, align 16
  %cmp40 = icmp eq i32 %8, %9
  br i1 %cmp40, label %land.rhs, label %lor.end

land.rhs:                                         ; preds = %land.lhs.true37
  %m_childIndexB = getelementptr inbounds i8, ptr %p, i64 100
  %10 = load i32, ptr %m_childIndexB, align 4
  %m_childIndexB41 = getelementptr inbounds i8, ptr %q, i64 100
  %11 = load i32, ptr %m_childIndexB41, align 4
  %cmp42 = icmp slt i32 %10, %11
  br label %lor.end

lor.end:                                          ; preds = %land.lhs.true11, %lor.lhs.false, %land.lhs.true37, %land.rhs, %land.lhs.true26, %land.lhs.true15, %land.lhs.true, %entry
  %12 = phi i1 [ true, %land.lhs.true26 ], [ true, %land.lhs.true15 ], [ true, %land.lhs.true ], [ true, %entry ], [ false, %land.lhs.true37 ], [ %cmp42, %land.rhs ], [ false, %lor.lhs.false ], [ false, %land.lhs.true11 ]
  ret i1 %12
}